; Function Attrs: nounwind sspstrong uwtable
define internal noundef i64 @iseqw_s_disasm(i64 noundef %0, i64 noundef %1) #0 {
  %3 = tail call i64 @iseqw_s_of(i64 poison, i64 noundef %1)
  %4 = icmp eq i64 %3, 4
  br i1 %4, label %23, label %5

5:                                                ; preds = %2
  %6 = tail call ptr @rb_check_typeddata(i64 noundef %3, ptr noundef nonnull @iseqw_data_type) #20
  %7 = load ptr, ptr %6, align 8, !tbaa !244
  %8 = getelementptr inbounds nuw i8, ptr %7, i64 16
  %9 = load ptr, ptr %8, align 8, !tbaa !7
  %.not.i = icmp eq ptr %9, null
  br i1 %.not.i, label %10, label %11

10:                                               ; preds = %5
  tail call void @rb_ibf_load_iseq_complete(ptr noundef nonnull %7) #20
  %.pre.i = load ptr, ptr %8, align 8, !tbaa !7
  br label %11

11:                                               ; preds = %10, %5
  %12 = phi ptr [ %.pre.i, %10 ], [ %9, %5 ]
  %13 = getelementptr inbounds nuw i8, ptr %12, i64 80
  %14 = load i64, ptr %13, align 8, !tbaa !232
  %.not5.i = icmp eq i64 %14, 0
  br i1 %.not5.i, label %15, label %iseqw_check.exit

15:                                               ; preds = %11
  %16 = load i64, ptr @rb_eTypeError, align 8, !tbaa !42
  tail call void (i64, ptr, ...) @rb_raise(i64 noundef %16, ptr noundef nonnull @.str.158) #21
  unreachable

iseqw_check.exit:                                 ; preds = %11
  %17 = tail call i64 @rb_str_new_static(ptr noundef null, i64 noundef 0) #20
  %18 = tail call fastcc i64 @rb_iseq_disasm_recursive(ptr noundef nonnull %7, i64 noundef %17)
  %19 = inttoptr i64 %18 to ptr
  %20 = getelementptr inbounds nuw i8, ptr %19, i64 16
  %21 = load i64, ptr %20, align 8, !tbaa !273
  %22 = tail call i64 @rb_str_resize(i64 noundef %18, i64 noundef %21) #20
  br label %23

23:                                               ; preds = %2, %iseqw_check.exit
  %24 = phi i64 [ %18, %iseqw_check.exit ], [ 4, %2 ]
  ret i64 %24
}